((c__builtin__
set
p1
((ltRp2
g1
((lp3
S'intro0'
p4
atRp5
t((lp6
ccopy_reg
_reconstructor
p7
(csrc.thing
Amoeba
p8
c__builtin__
object
p9
NtRp10
(dp11
S'alive'
p12
I01
sS'blobspecs'
p13
(lp14
(F6.0440788621733459
F0.68094878297220229
F0.66885466906383906
tp15
a(F2.5582421415659229
F-0.71600601179132162
F0.64075775024312365
tp16
a(F0.45680180515407887
F0.70819439338193968
F0.78910250434599039
tp17
a(F1.2178693371113956
F-0.90307761569265144
F0.64285064777276268
tp18
a(F5.3224006854488186
F0.81046228758992045
F0.63152343005125078
tp19
a(F2.300817283125788
F-0.94174283314116125
F0.68504250898486418
tp20
a(F1.3800069024752597
F0.81247935101933233
F0.73630084566725751
tp21
a(F3.919352670299872
F-0.84496209040630155
F0.65990715971150993
tp22
a(F0.52727553589975273
F0.98202082399085
F0.70502933212863728
tp23
a(F5.761766461881245
F-0.66014181695232721
F0.60021351469318263
tp24
a(F3.1291553978420286
F0.79697663102149241
F0.74886510641005166
tp25
a(F3.9411909941541876
F-0.97647956224724353
F0.65623082722788229
tp26
a(F3.6290780553917825
F0.98329174881244508
F0.60811751977675244
tp27
a(F2.8681723605661951
F-0.81955242324064481
F0.72375793361527307
tp28
a(F1.5759952384869746
F0.64271263049467475
F0.74378970541906064
tp29
a(F0.023132377142441055
F-0.86505537085140216
F0.63678275438836063
tp30
a(F3.5978629111026641
F0.62968302120030306
F0.75787531404828601
tp31
a(F4.7867973093938492
F-0.6637273468081154
F0.76144728752933766
tp32
asS'mass'
p33
I10000
sS't'
F28.54999999999885
sS'rcollide'
p34
I20
sS'y'
I-100
sS'x'
I0
sS'rblob'
p35
I20
sS'slots'
p36
(lp37
g7
(csrc.thing
Organelle
p38
g9
NtRp39
(dp40
S'container'
p41
g10
sS'color'
p42
(I255
I0
I0
tp43
sg12
I01
sg34
I6
sS'r'
I6
sg33
I10
sS't'
F19.617999999999665
sS'rmouse'
p44
I6
sS'y'
F-100.00000046328418
sS'x'
F-8.1125650417026585e-07
sS'flavor'
p45
I0
sbasS'nblob'
p46
I18
sS'nslot'
p47
I3
sbag7
(csrc.thing
Virus
p48
g9
NtRp49
(dp50
S'iy'
p51
I0
sS'ix'
p52
I0
sS'imgname'
p53
S'virus'
p54
sS'angle'
p55
F13.932100665322768
sS'target'
p56
g10
sS'hp'
p57
I1
sg12
I01
sS'imgdy'
p58
F1.5179809727552238
sS'tdraw0'
p59
F570.35390342445737
sS'r'
I6
sg33
I5
sS't'
F28.533999999998851
sg34
I6
sS'y'
F15.870952433211301
sS'x'
F34.551010334435389
sS'speed'
p60
F5.5929497131401211
sS'fstretch'
p61
F1.2878791926960476
sbag7
(csrc.thing
Tower
p62
g9
NtRp63
(dp64
S'lastshot'
p65
F17.174999999999883
sg12
I01
sg13
(lp66
(F6.2653914996417077
F0.68173602369208153
F0.63465566086052083
tp67
a(F1.115096391805358
F-0.74652503427307837
F0.76065169564320889
tp68
a(F0.12667666766468774
F0.82088935244635886
F0.76073895997928775
tp69
a(F0.10085913271784649
F-0.79641583452766551
F0.73508167451025952
tp70
a(F0.084831625050931003
F0.82476265783657654
F0.655846876243803
tp71
a(F5.8387788014345752
F-0.73404979912804169
F0.67029567664490641
tp72
a(F5.6376069855172837
F0.83356543173466979
F0.77175132890127873
tp73
a(F3.988219698929222
F-0.70248599273134682
F0.72232010488178222
tp74
a(F1.2709476116416805
F0.66713447704955275
F0.75712659961665274
tp75
a(F5.2026951783160706
F-0.6097316658136781
F0.79930782407632173
tp76
a(F1.0018832649024128
F0.88850980360292864
F0.60803227849834174
tp77
a(F4.5192646676103312
F-0.69078666898001839
F0.78571829520004399
tp78
a(F3.5912838230272359
F0.78389479023168163
F0.67418298406132648
tp79
a(F1.4642902658807235
F-0.65116595038227865
F0.72711848089621223
tp80
a(F5.3018612191839454
F0.79313681028673066
F0.79124160371610908
tp81
a(F4.310160439210982
F-0.72709536995243251
F0.72106545793885857
tp82
a(F2.4991745679008446
F0.78222195257473592
F0.77564136010453577
tp83
a(F6.126486704598384
F-0.69390406015239292
F0.66231671649646628
tp84
asg33
I24
sS't'
F18.011999999999802
sg34
F8.8184069536535947
sS'y'
F63.935576213436043
sS'x'
F-13.153516292175579
sg35
F8.8184069536535947
sg36
(lp85
g7
(g38
g9
NtRp86
(dp87
g41
g63
sg42
g43
sg12
I01
sg34
I6
sS'r'
I6
sg33
I10
sS't'
F19.245999999999693
sg44
I6
sS'y'
F68.182458853180776
sS'x'
F-8.9066336524303686
sg45
I0
sbag7
(g38
g9
NtRp88
(dp89
g41
g63
sg42
g43
sg12
I01
sg34
I6
sS'r'
I6
sg33
I10
sS't'
F19.906999999999638
sg44
I6
sS'y'
F59.688692197568436
sS'x'
F-17.400400308043647
sg45
I0
sbasg46
I18
sg47
I3
sbag7
(g48
g9
NtRp90
(dp91
g51
I0
sg52
I0
sg53
g54
sg55
F12.601169650600129
sg56
g10
sg57
I1
sg12
I01
sg58
F1.6633126441736705
sg59
F129.25405990779126
sS'r'
I6
sg33
I5
sS't'
F8.5440000000000147
sg34
I6
sS'y'
F-1.7893331130789394
sS'x'
F137.86455944920425
sg60
F4.318429204998159
sg61
F1.3194550019481217
sbag7
(g48
g9
NtRp92
(dp93
g51
I0
sg52
I0
sg53
g54
sg55
F14.700145908014678
sg56
g10
sg57
I1
sg12
I01
sg58
F0.351439855491046
sg59
F78.183607899409594
sS'r'
I6
sg33
I5
sS't'
F8.5440000000000147
sg34
I6
sS'y'
F25.165557796192918
sS'x'
F136.84470928391326
sg60
F4.3557910512023454
sg61
F1.0603227143068108
sbag7
(g48
g9
NtRp94
(dp95
g51
I0
sg52
I0
sg53
g54
sg55
F-2.5386792224286725
sg56
g10
sg57
I1
sg12
I01
sg58
F1.7580167301504446
sg59
F818.45862568992493
sS'r'
I6
sg33
I5
sS't'
F8.5440000000000147
sg34
I6
sS'y'
F-20.937026137912952
sS'x'
F145.74341982857814
sg60
F5.463633017405118
sg61
F1.3404465280718167
sbag7
(g48
g9
NtRp96
(dp97
g51
I0
sg52
I0
sg53
g54
sg55
F-9.5351124325839809
sg56
g10
sg57
I1
sg12
I01
sg58
F1.5917561660603161
sg59
F115.97157027440663
sS'r'
I6
sg33
I5
sS't'
F8.5440000000000147
sg34
I6
sS'y'
F-5.6966503046808494
sS'x'
F151.53976015264055
sg60
F4.3207078516229531
sg61
F1.3038125384898729
sbag7
(g48
g9
NtRp98
(dp99
g51
I0
sg52
I0
sg53
g54
sg55
F14.111791037766723
sg56
g10
sg57
I1
sg12
I01
sg58
F0.90725074420823804
sg59
F57.482271366325108
sS'r'
I6
sg33
I5
sS't'
F8.5440000000000147
sg34
I6
sS'y'
F-40.868207144140094
sS'x'
F139.13290872081748
sg60
F5.3489013266480043
sg61
F1.1632391185746631
sbag7
(g48
g9
NtRp100
(dp101
g51
I0
sg52
I0
sg53
g54
sg55
F13.271518932744756
sg56
g10
sg57
I1
sg12
I01
sg58
F-1.7542159924454108
sg59
F78.65779884718161
sS'r'
I6
sg33
I5
sS't'
F8.5440000000000147
sg34
I6
sS'y'
F45.050315304171704
sS'x'
F156.49714465592609
sg60
F4.0002689459365577
sg61
F0.74649278132664487
sbag7
(g48
g9
NtRp102
(dp103
g51
I0
sg52
I0
sg53
g54
sg55
F-2.0014700461116162
sg56
g10
sg57
I1
sg12
I01
sg58
F0.24424728167642357
sg59
F426.26603454003873
sS'r'
I6
sg33
I5
sS't'
F8.5440000000000147
sg34
I6
sS'y'
F22.951290237321981
sS'x'
F117.813766928397
sg60
F5.5929791895512784
sg61
F1.041547804447845
sbag7
(g48
g9
NtRp104
(dp105
g51
I0
sg52
I0
sg53
g54
sg55
F3.6021081269761326
sg56
g10
sg57
I1
sg12
I01
sg58
F-1.6738220549728611
sg59
F907.34967291914256
sS'r'
I6
sg33
I5
sS't'
F8.5440000000000147
sg34
I6
sS'y'
F-30.928952416457534
sS'x'
F132.38758741948274
sg60
F5.101798818422898
sg61
F0.75656234063336614
sbag7
(g48
g9
NtRp106
(dp107
g51
I0
sg52
I0
sg53
g54
sg55
F-13.631219518553415
sg56
g10
sg57
I1
sg12
I01
sg58
F1.6791088123840741
sg59
F764.4817308793555
sS'r'
I6
sg33
I5
sS't'
F8.5440000000000147
sg34
I6
sS'y'
F43.503676773636094
sS'x'
F119.86101532872738
sg60
F4.8211328208668061
sg61
F1.3229333007813506
sbag7
(g48
g9
NtRp108
(dp109
g51
I0
sg52
I0
sg53
g54
sg55
F-9.5274496000063902
sg56
g10
sg57
I1
sg12
I01
sg58
F1.5130475884626327
sg59
F531.90977209175151
sS'r'
I6
sg33
I5
sS't'
F8.5440000000000147
sg34
I6
sS'y'
F-46.823604690195815
sS'x'
F119.24461073458268
sg60
F5.6897687112520936
sg61
F1.2868206940907145
sba(lp110
g10
ag49
ag63
ag90
ag92
ag94
ag96
ag98
ag100
ag102
ag104
ag106
ag108
a(lp111
g88
ag39
ag86
a(lp112
g10
ag49
ag88
ag39
ag86
ag63
ag90
ag92
ag94
ag96
ag98
ag100
ag102
ag104
ag106
ag108
a(lp113
g10
ag63
a(lp114
g49
ag90
ag92
ag94
ag96
ag98
ag100
ag102
ag104
ag106
ag108
atp115
I0
I0
g10
I10
I150
(lp116
(I40
F-0.14999999999999999
I15
tp117
a(I60
F-0.10000000000000001
I20
tp118
a(I60
F0.10000000000000001
I20
tp119
a(lp120
(I0
I0
I5
tp121
a(I20
F0.14999999999999999
I10
tp122
aI0
I0
tp123
.