((c__builtin__
set
p1
((ltRp2
g1
((lp3
S'intro0'
p4
atRp5
t((lp6
ccopy_reg
_reconstructor
p7
(csrc.thing
Amoeba
p8
c__builtin__
object
p9
NtRp10
(dp11
S'alive'
p12
I01
sS'blobspecs'
p13
(lp14
(F6.2803561389472371
F0.98372275118627739
F0.60719510780575703
tp15
a(F3.9879678721999237
F-0.89389844606575197
F0.64073367708304896
tp16
a(F3.8079977391988398
F0.80966036498961036
F0.62984658903906698
tp17
a(F0.66720862800154945
F-0.86826169874718184
F0.70827643697885556
tp18
a(F4.5579983157512221
F0.6856115573038889
F0.69339107264695055
tp19
a(F1.739892632192068
F-0.90388060720195007
F0.62619260358304252
tp20
a(F5.3901840127051681
F0.96664782916647796
F0.76787290459322288
tp21
a(F5.1542508197147967
F-0.89932388022782672
F0.72828270731824041
tp22
a(F1.9337664626670077
F0.85466852738575483
F0.79982255989138751
tp23
a(F5.2480113199939433
F-0.72888032439353045
F0.71240118790139517
tp24
a(F1.0205015927387464
F0.66683819894925978
F0.72525400400433626
tp25
a(F5.7135361740061885
F-0.88815885738702216
F0.66699273009610727
tp26
a(F5.8026583408708863
F0.97436175277684733
F0.7787443652022491
tp27
a(F6.2797237715154495
F-0.96779083336909055
F0.64575251884101548
tp28
a(F3.3774783617513187
F0.73124792615989409
F0.68266661608290091
tp29
a(F2.3661893227320179
F-0.75451558276700736
F0.6506811809270826
tp30
a(F1.926868895475969
F0.85330337815301727
F0.7015117810695024
tp31
a(F3.6396401088045645
F-0.60778309459942115
F0.77465398332832813
tp32
asS'mass'
p33
I10000
sS't'
F95.742999999998545
sS'rcollide'
p34
I20
sS'y'
F-100
sS'x'
F0
sS'rblob'
p35
I20
sS'slots'
p36
(lp37
sS'nblob'
p38
I18
sS'nslot'
p39
I3
sbag7
(csrc.thing
Virus
p40
g9
NtRp41
(dp42
S'iy'
p43
I0
sS'ix'
p44
I0
sS'imgname'
p45
S'virus'
p46
sS'angle'
p47
F-11.513653867801853
sS'target'
p48
g10
sS'hp'
p49
I1
sg12
I01
sS'imgdy'
p50
F0.1376794046289094
sS'tdraw0'
p51
F489.24520843220921
sS'r'
I6
sg33
I5
sS't'
F95.72699999999854
sg34
I6
sS'y'
F-59.897693791915074
sS'x'
F8.2731012906353794
sS'speed'
p52
F4.3531572119055131
sS'fstretch'
p53
F1.0232118652552624
sbag7
(g40
g9
NtRp54
(dp55
g43
I0
sg44
I0
sg45
g46
sg47
F13.860437198642032
sg48
g10
sg49
I1
sg12
I01
sg50
F-1.7355924897274526
sg51
F859.1869189058707
sS'r'
I6
sg33
I5
sS't'
F95.72699999999854
sg34
I6
sS'y'
F-107.39195925271991
sS'x'
F-24.98813239012819
sg52
F4.1861247299076547
sg53
F0.7488134327419812
sbag7
(g40
g9
NtRp56
(dp57
g43
I0
sg44
I0
sg45
g46
sg47
F-4.307924446964333
sg48
g10
sg49
I1
sg12
I01
sg50
F-0.66938722330427836
sg51
F458.80220689654703
sS'r'
I6
sg33
I5
sS't'
F95.72699999999854
sg34
I6
sS'y'
F-80.284110777529804
sS'x'
F16.535579849065208
sg52
F5.0430192865135925
sg53
F0.89443366528065826
sbag7
(g40
g9
NtRp58
(dp59
g43
I0
sg44
I0
sg45
g46
sg47
F3.1500353387195994
sg48
g10
sg49
I1
sg12
I01
sg50
F-0.67550066645968443
sg51
F187.36896777209145
sS'r'
I6
sg33
I5
sS't'
F95.72699999999854
sg34
I6
sS'y'
F-74.800145981870017
sS'x'
F6.2995115996242319
sg52
F5.4075773134682317
sg53
F0.89352278451611467
sbag7
(g40
g9
NtRp60
(dp61
g43
I0
sg44
I0
sg45
g46
sg47
F12.09360180749041
sg48
g10
sg49
I1
sg12
I01
sg50
F0.14112671076975572
sg51
F157.16336018620669
sS'r'
I6
sg33
I5
sS't'
F95.72699999999854
sg34
I6
sS'y'
F-124.34311129643801
sS'x'
F-9.3536093326935834
sg52
F5.7242328953869688
sg53
F1.0237999215976858
sbag7
(g40
g9
NtRp62
(dp63
g43
I0
sg44
I0
sg45
g46
sg47
F9.8489589634013459
sg48
g10
sg49
I1
sg12
I01
sg50
F-0.73254410679379611
sg51
F124.48536536612231
sS'r'
I6
sg33
I5
sS't'
F75.67599999999905
sg34
I6
sS'y'
F-78.888130780132144
sS'x'
F28.203313075749229
sg52
F4.9799916988766784
sg53
F0.88506810293529881
sbag7
(g40
g9
NtRp64
(dp65
g43
I0
sg44
I0
sg45
g46
sg47
F2.0521422045498863
sg48
g10
sg49
I1
sg12
I01
sg50
F-1.3573545819028996
sg51
F128.29878933536321
sS'r'
I6
sg33
I5
sS't'
F75.67599999999905
sg34
I6
sS'y'
F-108.3369772035617
sS'x'
F35.277414709146157
sg52
F4.0623392124163873
sg53
F0.79753802624299286
sbag7
(g40
g9
NtRp66
(dp67
g43
I0
sg44
I0
sg45
g46
sg47
F8.7385528392107261
sg48
g10
sg49
I1
sg12
I01
sg50
F0.19256652763577969
sg51
F609.20191713556176
sS'r'
I6
sg33
I5
sS't'
F75.67599999999905
sg34
I6
sS'y'
F-91.674271761298769
sS'x'
F35.349720313196592
sg52
F4.2612301996127728
sg53
F1.0326150015247682
sbag7
(g40
g9
NtRp68
(dp69
g43
I0
sg44
I0
sg45
g46
sg47
F7.6246901171907817
sg48
g10
sg49
I1
sg12
I01
sg50
F1.799820891476748
sg51
F735.01339497770914
sS'r'
I6
sg33
I5
sS't'
F75.67599999999905
sg34
I6
sS'y'
F-69.213873994527418
sS'x'
F15.892914927007462
sg52
F5.6614790198799652
sg53
F1.3498185129744944
sbag7
(g40
g9
NtRp70
(dp71
g43
I0
sg44
I0
sg45
g46
sg47
F-8.4509048693329465
sg48
g10
sg49
I1
sg12
I01
sg50
F0.85850922948468877
sg51
F844.86036558363332
sS'r'
I6
sg33
I5
sS't'
F75.67599999999905
sg34
I6
sS'y'
F-123.9736445415934
sS'x'
F25.43298744297174
sg52
F4.4998633427274459
sg53
F1.1538277246934547
sbag7
(g40
g9
NtRp72
(dp73
g43
I0
sg44
I0
sg45
g46
sg47
F-14.95065419924836
sg48
g10
sg49
I1
sg12
I01
sg50
F0.54064641390753998
sg51
F298.83235122141861
sS'r'
I6
sg33
I5
sS't'
F75.67599999999905
sg34
I6
sS'y'
F-89.515841677526296
sS'x'
F23.925553802232532
sg52
F5.4383722822578182
sg53
F1.094292171634506
sbag7
(g40
g9
NtRp74
(dp75
g43
I0
sg44
I0
sg45
g46
sg47
F-10.928509277157668
sg48
g10
sg49
I1
sg12
I01
sg50
F0.017582897154419193
sg51
F182.24778001656793
sS'r'
I6
sg33
I5
sS't'
F75.67599999999905
sg34
I6
sS'y'
F-125.95428073689294
sS'x'
F2.3411729470421108
sg52
F5.2367465320032336
sg53
F1.002934780921404
sbag7
(g40
g9
NtRp76
(dp77
g43
I0
sg44
I0
sg45
g46
sg47
F-8.6491471814163692
sg48
g10
sg49
I1
sg12
I01
sg50
F0.40876458367255369
sg51
F405.01058500360631
sS'r'
I6
sg33
I5
sS't'
F75.67599999999905
sg34
I6
sS'y'
F-101.08272941793177
sS'x'
F26.06371592287287
sg52
F4.4649800238008677
sg53
F1.0705017144761615
sbag7
(g40
g9
NtRp78
(dp79
g43
I0
sg44
I0
sg45
g46
sg47
F-3.1086761977988848
sg48
g10
sg49
I1
sg12
I01
sg50
F-1.1726034620895069
sg51
F778.13793431871159
sS'r'
I6
sg33
I5
sS't'
F75.67599999999905
sg34
I6
sS'y'
F-122.13435334607648
sS'x'
F13.689134748667357
sg52
F5.6907325024134927
sg53
F0.82247769903269585
sbag7
(g40
g9
NtRp80
(dp81
g43
I0
sg44
I0
sg45
g46
sg47
F5.7224813829112078
sg48
g10
sg49
I1
sg12
I01
sg50
F-0.42862296937533478
sg51
F599.11405862123922
sS'r'
I6
sg33
I5
sS't'
F75.67599999999905
sg34
I6
sS'y'
F-112.37270305574934
sS'x'
F22.845329500393401
sg52
F5.2778580747250023
sg53
F0.93105478178434886
sbag7
(g40
g9
NtRp82
(dp83
g43
I0
sg44
I0
sg45
g46
sg47
F-6.5906205777158462
sg48
g10
sg49
I1
sg12
I01
sg50
F-1.2860538727228843
sg51
F662.35249335460514
sS'r'
I6
sg33
I5
sS't'
F55.735999999999315
sg34
I6
sS'y'
F-99.15397336911559
sS'x'
F-36.846514327540085
sg52
F4.0145984306945346
sg53
F0.80707206718120894
sbag7
(g40
g9
NtRp84
(dp85
g43
I0
sg44
I0
sg45
g46
sg47
F4.9756679570305193
sg48
g10
sg49
I1
sg12
I01
sg50
F-1.0863292465281995
sg51
F227.57086698363483
sS'r'
I6
sg33
I5
sS't'
F55.735999999999315
sg34
I6
sS'y'
F-74.767408187833325
sS'x'
F-5.6577568445092981
sg52
F5.864943383228221
sg53
F0.83438957079461706
sbag7
(g40
g9
NtRp86
(dp87
g43
I0
sg44
I0
sg45
g46
sg47
F0.058450086368377778
sg48
g10
sg49
I1
sg12
I01
sg50
F1.6139685751909152
sg51
F703.47573014705767
sS'r'
I6
sg33
I5
sS't'
F55.735999999999315
sg34
I6
sS'y'
F-64.455662575538341
sS'x'
F-11.189861849385487
sg52
F5.0060474305480449
sg53
F1.3086482870247547
sbag7
(g40
g9
NtRp88
(dp89
g43
I0
sg44
I0
sg45
g46
sg47
F-7.1298191055858888
sg48
g10
sg49
I1
sg12
I01
sg50
F1.4376290519281874
sg51
F48.158206524067772
sS'r'
I6
sg33
I5
sS't'
F55.735999999999315
sg34
I6
sS'y'
F-117.72973845588602
sS'x'
F-31.016956539784285
sg52
F4.1413042912713713
sg53
F1.2707469052740594
sbag7
(g40
g9
NtRp90
(dp91
g43
I0
sg44
I0
sg45
g46
sg47
F12.18394494222075
sg48
g10
sg49
I1
sg12
I01
sg50
F-0.16607165241390501
sg51
F982.56961135407391
sS'r'
I6
sg33
I5
sS't'
F55.735999999999315
sg34
I6
sS'y'
F-75.547522914811879
sS'x'
F-28.356640630916136
sg52
F4.0479594835538073
sg53
F0.9727009341534093
sbag7
(g40
g9
NtRp92
(dp93
g43
I0
sg44
I0
sg45
g46
sg47
F-9.8105697933107621
sg48
g10
sg49
I1
sg12
I01
sg50
F0.63857828194816335
sg51
F278.17903272977952
sS'r'
I6
sg33
I5
sS't'
F55.735999999999315
sg34
I6
sS'y'
F-128.31125015364941
sS'x'
F-24.083632877067316
sg52
F4.2951507291548641
sg53
F1.112299744217947
sbag7
(g40
g9
NtRp94
(dp95
g43
I0
sg44
I0
sg45
g46
sg47
F0.24505173321413326
sg48
g10
sg49
I1
sg12
I01
sg50
F1.7434588453698672
sg51
F169.38424432561905
sS'r'
I6
sg33
I5
sS't'
F55.735999999999315
sg34
I6
sS'y'
F-110.36993868676025
sS'x'
F-40.507496317561916
sg52
F4.1954415693434335
sg53
F1.3371981261354886
sbag7
(g40
g9
NtRp96
(dp97
g43
I0
sg44
I0
sg45
g46
sg47
F14.997889647635688
sg48
g10
sg49
I1
sg12
I01
sg50
F1.7466732354998387
sg51
F543.81255571222528
sS'r'
I6
sg33
I5
sS't'
F55.735999999999315
sg34
I6
sS'y'
F-89.657734032621434
sS'x'
F-43.987698838892918
sg52
F4.0254166781546648
sg53
F1.3379146974730807
sbag7
(g40
g9
NtRp98
(dp99
g43
I0
sg44
I0
sg45
g46
sg47
F-11.131306303543646
sg48
g10
sg49
I1
sg12
I01
sg50
F1.7638131051749213
sg51
F495.43634547819016
sS'r'
I6
sg33
I5
sS't'
F55.735999999999315
sg34
I6
sS'y'
F-86.566359067138521
sS'x'
F-32.807520596706603
sg52
F4.557971512077728
sg53
F1.341742108906582
sbag7
(g40
g9
NtRp100
(dp101
g43
I0
sg44
I0
sg45
g46
sg47
F-3.0773479663253265
sg48
g10
sg49
I1
sg12
I01
sg50
F-1.2204324987392536
sg51
F232.58769930835854
sS'r'
I6
sg33
I5
sS't'
F55.735999999999315
sg34
I6
sS'y'
F-74.664174860138985
sS'x'
F-16.332592895616269
sg52
F4.9917771605119619
sg53
F0.81594737586712163
sbag7
(g40
g9
NtRp102
(dp103
g43
I0
sg44
I0
sg45
g46
sg47
F0.24092815687066829
sg48
g10
sg49
I1
sg12
I01
sg50
F1.7413894588073697
sg51
F954.78286595834675
sS'r'
I6
sg33
I5
sS't'
F55.735999999999315
sg34
I6
sS'y'
F-64.697055667264721
sS'x'
F0.088771248398954727
sg52
F5.2133101069810257
sg53
F1.3367370090202528
sbag7
(g40
g9
NtRp104
(dp105
g43
I0
sg44
I0
sg45
g46
sg47
F12.650467880158716
sg48
g10
sg49
I1
sg12
I01
sg50
F0.053854878540875305
sg51
F942.66513769509527
sS'r'
I6
sg33
I5
sS't'
F55.735999999999315
sg34
I6
sS'y'
F-65.03014295636045
sS'x'
F-22.787991705890313
sg52
F4.3049943353670059
sg53
F1.0090162164944552
sbag7
(g40
g9
NtRp106
(dp107
g43
I0
sg44
I0
sg45
g46
sg47
F9.7378716297685965
sg48
g10
sg49
I1
sg12
I01
sg50
F0.45608954467505525
sg51
F325.31357129342717
sS'r'
I6
sg33
I5
sS't'
F55.735999999999315
sg34
I6
sS'y'
F-85.284951594624175
sS'x'
F-20.753672313274542
sg52
F5.1802768301750399
sg53
F1.0789786768362926
sbag7
(g40
g9
NtRp108
(dp109
g43
I0
sg44
I0
sg45
g46
sg47
F-9.8960795892438327
sg48
g10
sg49
I1
sg12
I01
sg50
F0.8450224539953114
sg51
F560.90977033913816
sS'r'
I6
sg33
I5
sS't'
F55.735999999999315
sg34
I6
sS'y'
F-95.946370413130623
sS'x'
F-25.206108194101848
sg52
F5.2426983614336224
sg53
F1.151237068171761
sbag7
(g40
g9
NtRp110
(dp111
g43
I0
sg44
I0
sg45
g46
sg47
F6.2560683675034747
sg48
g10
sg49
I1
sg12
I01
sg50
F1.6823477238371749
sg51
F922.67667619250915
sS'r'
I6
sg33
I5
sS't'
F55.735999999999315
sg34
I6
sS'y'
F-117.63812818676101
sS'x'
F-19.173557397258577
sg52
F5.7903928328966741
sg53
F1.3236476375400614
sbag7
(g40
g9
NtRp112
(dp113
g43
I0
sg44
I0
sg45
g46
sg47
F14.999376336185087
sg48
g10
sg49
I1
sg12
I01
sg50
F1.6771352843071137
sg51
F186.85867792519429
sS'r'
I6
sg33
I5
sS't'
F35.685999999999638
sg34
I6
sS'y'
F-55.86666657650354
sS'x'
F-40.833943888709882
sg52
F5.4649958536869701
sg53
F1.3224982313349143
sbag7
(g40
g9
NtRp114
(dp115
g43
I0
sg44
I0
sg45
g46
sg47
F-12.471050911566884
sg48
g10
sg49
I1
sg12
I01
sg50
F1.7850639089891653
sg51
F966.02370893486375
sS'r'
I6
sg33
I5
sS't'
F35.685999999999638
sg34
I6
sS'y'
F-64.460794391523024
sS'x'
F-49.402892518340117
sg52
F4.5679680363121955
sg53
F1.3465027175476569
sbag7
(g40
g9
NtRp116
(dp117
g43
I0
sg44
I0
sg45
g46
sg47
F13.623130109597797
sg48
g10
sg49
I1
sg12
I01
sg50
F-1.4251734162669829
sg51
F679.74601621055103
sS'r'
I6
sg33
I5
sS't'
F35.685999999999638
sg34
I6
sS'y'
F-33.564747944411465
sS'x'
F-37.409563080653037
sg52
F5.4787842734474479
sg53
F0.78857409872229256
sbag7
(g40
g9
NtRp118
(dp119
g43
I0
sg44
I0
sg45
g46
sg47
F-4.1787839592249201
sg48
g10
sg49
I1
sg12
I01
sg50
F-0.88900742996242155
sg51
F131.39507304322572
sS'r'
I6
sg33
I5
sS't'
F35.685999999999638
sg34
I6
sS'y'
F-35.396246945587187
sS'x'
F-16.530147391006
sg52
F5.2283240497142689
sg53
F0.86228632060727872
sbag7
(g40
g9
NtRp120
(dp121
g43
I0
sg44
I0
sg45
g46
sg47
F10.48384814653526
sg48
g10
sg49
I1
sg12
I01
sg50
F1.1806388271319423
sg51
F897.60963856616036
sS'r'
I6
sg33
I5
sS't'
F35.685999999999638
sg34
I6
sS'y'
F-53.602560776057089
sS'x'
F-15.741374234928228
sg52
F5.1570032701622477
sg53
F1.2174678120152684
sbag7
(g40
g9
NtRp122
(dp123
g43
I0
sg44
I0
sg45
g46
sg47
F-11.383017976669516
sg48
g10
sg49
I1
sg12
I01
sg50
F0.53402846403560345
sg51
F203.73348188762429
sS'r'
I6
sg33
I5
sS't'
F35.685999999999638
sg34
I6
sS'y'
F-76.160049322328533
sS'x'
F-51.694445965830688
sg52
F4.5390725854149476
sg53
F1.0930858419197502
sbag7
(g40
g9
NtRp124
(dp125
g43
I0
sg44
I0
sg45
g46
sg47
F-14.525226028612687
sg48
g10
sg49
I1
sg12
I01
sg50
F0.028266486970603095
sg51
F861.86545070566729
sS'r'
I6
sg33
I5
sS't'
F35.685999999999638
sg34
I6
sS'y'
F-55.332435591861781
sS'x'
F-29.274001648791756
sg52
F5.6366394844522256
sg53
F1.004722195751681
sbag7
(g40
g9
NtRp126
(dp127
g43
I0
sg44
I0
sg45
g46
sg47
F-14.347571707299329
sg48
g10
sg49
I1
sg12
I01
sg50
F1.7561050967245215
sg51
F381.0683950356447
sS'r'
I6
sg33
I5
sS't'
F35.685999999999638
sg34
I6
sS'y'
F-66.456497199427972
sS'x'
F-35.414415730981958
sg52
F4.6474480566230278
sg53
F1.3400195223671729
sbag7
(g40
g9
NtRp128
(dp129
g43
I0
sg44
I0
sg45
g46
sg47
F-14.791060370168962
sg48
g10
sg49
I1
sg12
I01
sg50
F1.1466842274905584
sg51
F244.16083934051923
sS'r'
I6
sg33
I5
sS't'
F35.685999999999638
sg34
I6
sS'y'
F0.52988078649655979
sS'x'
F-39.95420449036326
sg52
F4.3088694412657844
sg53
F1.2105974982246173
sbag7
(g40
g9
NtRp130
(dp131
g43
I0
sg44
I0
sg45
g46
sg47
F14.840183003832376
sg48
g10
sg49
I1
sg12
I01
sg50
F1.7699771157316491
sg51
F794.46156884809238
sS'r'
I6
sg33
I5
sS't'
F35.685999999999638
sg34
I6
sS'y'
F-26.798303472706841
sS'x'
F-27.553639391221871
sg52
F4.4223014141272365
sg53
F1.3431212359520424
sbag7
(g40
g9
NtRp132
(dp133
g43
I0
sg44
I0
sg45
g46
sg47
F-1.8167510385692021
sg48
g10
sg49
I1
sg12
I01
sg50
F0.12735997385349088
sg51
F644.79005023877198
sS'r'
I6
sg33
I5
sS't'
F35.685999999999638
sg34
I6
sS'y'
F-44.916984701175338
sS'x'
F-23.555431300468353
sg52
F5.3067454432979755
sg53
F1.0214535504207012
sbag7
(g40
g9
NtRp134
(dp135
g43
I0
sg44
I0
sg45
g46
sg47
F-14.989061497748484
sg48
g10
sg49
I1
sg12
I01
sg50
F1.0699451308660783
sg51
F788.91841789801424
sS'r'
I6
sg33
I5
sS't'
F35.685999999999638
sg34
I6
sS'y'
F-42.051092542647744
sS'x'
F-58.594840745435761
sg52
F4.3112812404437015
sg53
F1.1952127326305473
sbag7
(g40
g9
NtRp136
(dp137
g43
I0
sg44
I0
sg45
g46
sg47
F-11.544423804639706
sg48
g10
sg49
I1
sg12
I01
sg50
F-1.5376226409907292
sg51
F567.91635647448061
sS'r'
I6
sg33
I5
sS't'
F35.685999999999638
sg34
I6
sS'y'
F-77.494635480041211
sS'x'
F-39.756352478697153
sg52
F5.6734905822152069
sg53
F0.7739326380173811
sbag7
(g40
g9
NtRp138
(dp139
g43
I0
sg44
I0
sg45
g46
sg47
F-14.938928187303237
sg48
g10
sg49
I1
sg12
I01
sg50
F-1.0013251086287069
sg51
F495.61630938281553
sS'r'
I6
sg33
I5
sS't'
F35.685999999999638
sg34
I6
sS'y'
F-53.237943713471211
sS'x'
F-63.954738074033457
sg52
F4.4418686757360213
sg53
F0.84629479882653635
sbag7
(g40
g9
NtRp140
(dp141
g43
I0
sg44
I0
sg45
g46
sg47
F-9.1383126089284019
sg48
g10
sg49
I1
sg12
I01
sg50
F-1.7945813130381709
sg51
F43.945612462865654
sS'r'
I6
sg33
I5
sS't'
F35.685999999999638
sg34
I6
sS'y'
F-6.2269922457854952
sS'x'
F-29.478322088116617
sg52
F4.4866514345002013
sg53
F0.74148756655645309
sbag7
(g40
g9
NtRp142
(dp143
g43
I0
sg44
I0
sg45
g46
sg47
F-14.867676067844435
sg48
g10
sg49
I1
sg12
I01
sg50
F-1.6561038252328215
sg51
F642.15287187608749
sS'r'
I6
sg33
I5
sS't'
F35.685999999999638
sg34
I6
sS'y'
F-52.082256559143453
sS'x'
F-52.189739878047085
sg52
F4.2396839524353336
sg53
F0.75879980021998117
sbag7
(g40
g9
NtRp144
(dp145
g43
I0
sg44
I0
sg45
g46
sg47
F13.049741264790761
sg48
g10
sg49
I1
sg12
I01
sg50
F-0.38619879418382569
sg51
F93.455081670506985
sS'r'
I6
sg33
I5
sS't'
F35.685999999999638
sg34
I6
sS'y'
F-14.663017406258907
sS'x'
F-52.661444684570611
sg52
F4.4516140703146192
sg53
F0.93766131585248724
sbag7
(g40
g9
NtRp146
(dp147
g43
I0
sg44
I0
sg45
g46
sg47
F13.340438095060877
sg48
g10
sg49
I1
sg12
I01
sg50
F0.99206584310677337
sg51
F386.60242654941703
sS'r'
I6
sg33
I5
sS't'
F35.685999999999638
sg34
I6
sS'y'
F-41.392293852000805
sS'x'
F-46.667744796036878
sg52
F5.4578425948156077
sg53
F1.179799262150508
sbag7
(g40
g9
NtRp148
(dp149
g43
I0
sg44
I0
sg45
g46
sg47
F-0.043635982065853826
sg48
g10
sg49
I1
sg12
I01
sg50
F-1.5133949110775839
sg51
F6.1970535985740316
sS'r'
I6
sg33
I5
sS't'
F35.685999999999638
sg34
I6
sS'y'
F-45.432659097064651
sS'x'
F-35.411359173513084
sg52
F5.44793280171967
sg53
F0.77706406118958726
sbag7
(g40
g9
NtRp150
(dp151
g43
I0
sg44
I0
sg45
g46
sg47
F11.305516440726677
sg48
g10
sg49
I1
sg12
I01
sg50
F-0.75501209398521996
sg51
F70.456547627135492
sS'r'
I6
sg33
I5
sS't'
F35.685999999999638
sg34
I6
sS'y'
F-11.788193363752526
sS'x'
F-40.125443113329119
sg52
F4.3094468529179881
sg53
F0.88176001750264976
sbag7
(g40
g9
NtRp152
(dp153
g43
I0
sg44
I0
sg45
g46
sg47
F8.4289477286404555
sg48
g10
sg49
I1
sg12
I01
sg50
F-0.90481813725730587
sg51
F488.98730391152037
sS'r'
I6
sg33
I5
sS't'
F35.605999999999646
sg34
I6
sS'y'
F-31.512449396953784
sS'x'
F31.586174529347041
sg52
F5.4436235849993455
sg53
F0.86001708566791346
sbag7
(g40
g9
NtRp154
(dp155
g43
I0
sg44
I0
sg45
g46
sg47
F-11.392132391040636
sg48
g10
sg49
I1
sg12
I01
sg50
F1.2420658471861497
sg51
F413.25143623852381
sS'r'
I6
sg33
I5
sS't'
F35.605999999999646
sg34
I6
sS'y'
F-18.79453973791523
sS'x'
F40.21881213013252
sg52
F4.8722453809632835
sg53
F1.229996070336717
sbag7
(g40
g9
NtRp156
(dp157
g43
I0
sg44
I0
sg45
g46
sg47
F5.9820804708084667
sg48
g10
sg49
I1
sg12
I01
sg50
F0.85265920279640395
sg51
F205.93312637902983
sS'r'
I6
sg33
I5
sS't'
F35.605999999999646
sg34
I6
sS'y'
F1.8734650946551583
sS'x'
F40.863902676464775
sg52
F4.9242615653052226
sg53
F1.1527032857851442
sbag7
(g40
g9
NtRp158
(dp159
g43
I0
sg44
I0
sg45
g46
sg47
F14.988517229954811
sg48
g10
sg49
I1
sg12
I01
sg50
F1.0924603904485872
sg51
F773.28889004644861
sS'r'
I6
sg33
I5
sS't'
F35.605999999999646
sg34
I6
sS'y'
F-25.251104309116268
sS'x'
F21.34725613358297
sg52
F4.5382835726099824
sg53
F1.1997062458976209
sbag7
(g40
g9
NtRp160
(dp161
g43
I0
sg44
I0
sg45
g46
sg47
F-11.688959625354695
sg48
g10
sg49
I1
sg12
I01
sg50
F0.41166108004395258
sg51
F463.30198765979247
sS'r'
I6
sg33
I5
sS't'
F35.605999999999646
sg34
I6
sS'y'
F-62.675031994730723
sS'x'
F51.980363493892241
sg52
F4.5746012753676428
sg53
F1.0710186232900909
sbag7
(g40
g9
NtRp162
(dp163
g43
I0
sg44
I0
sg45
g46
sg47
F-14.769706746030948
sg48
g10
sg49
I1
sg12
I01
sg50
F1.7162389388262573
sg51
F527.55510973606761
sS'r'
I6
sg33
I5
sS't'
F35.605999999999646
sg34
I6
sS'y'
F-42.128819973265891
sS'x'
F26.00724903831464
sg52
F5.6972499389214866
sg53
F1.3311454645859333
sbag7
(g40
g9
NtRp164
(dp165
g43
I0
sg44
I0
sg45
g46
sg47
F2.4084150421571606
sg48
g10
sg49
I1
sg12
I01
sg50
F-1.7956349798371782
sg51
F645.34117328393688
sS'r'
I6
sg33
I5
sS't'
F35.605999999999646
sg34
I6
sS'y'
F-8.2775638864971999
sS'x'
F34.457488194470031
sg52
F4.5639424683606471
sg53
F0.74135736451745859
sbag7
(g40
g9
NtRp166
(dp167
g43
I0
sg44
I0
sg45
g46
sg47
F1.4303573284330708
sg48
g10
sg49
I1
sg12
I01
sg50
F-0.8672132221428448
sg51
F257.76848477394662
sS'r'
I6
sg33
I5
sS't'
F35.605999999999646
sg34
I6
sS'y'
F-48.397707145162762
sS'x'
F39.78126469238245
sg52
F4.6296996265240429
sg53
F0.8654241572577569
sbag7
(g40
g9
NtRp168
(dp169
g43
I0
sg44
I0
sg45
g46
sg47
F-14.975962187043933
sg48
g10
sg49
I1
sg12
I01
sg50
F-0.18600343235981998
sg51
F872.93224341468886
sS'r'
I6
sg33
I5
sS't'
F35.605999999999646
sg34
I6
sS'y'
F-51.084122432070544
sS'x'
F55.098340034968729
sg52
F4.7263219011807021
sg53
F0.96947501847801731
sbag7
(g40
g9
NtRp170
(dp171
g43
I0
sg44
I0
sg45
g46
sg47
F-5.7454210726045307
sg48
g10
sg49
I1
sg12
I01
sg50
F-1.2648537810350253
sg51
F916.6886513468196
sS'r'
I6
sg33
I5
sS't'
F35.605999999999646
sg34
I6
sS'y'
F-55.716999542420474
sS'x'
F30.619133720125131
sg52
F5.2466575022734174
sg53
F0.80992877805734675
sbag7
(g40
g9
NtRp172
(dp173
g43
I0
sg44
I0
sg45
g46
sg47
F13.613465321785659
sg48
g10
sg49
I1
sg12
I01
sg50
F-1.6466957344353499
sg51
F71.009499871309004
sS'r'
I6
sg33
I5
sS't'
F35.605999999999646
sg34
I6
sS'y'
F-80.512560931501341
sS'x'
F39.850441242854949
sg52
F5.5850206561673925
sg53
F0.75999054309703151
sbag7
(g40
g9
NtRp174
(dp175
g43
I0
sg44
I0
sg45
g46
sg47
F-14.502676074560503
sg48
g10
sg49
I1
sg12
I01
sg50
F-1.6517785615592437
sg51
F725.79984544129934
sS'r'
I6
sg33
I5
sS't'
F35.605999999999646
sg34
I6
sS'y'
F-30.249899835362562
sS'x'
F43.486629567735847
sg52
F5.273656414572109
sg53
F0.75934699896308988
sbag7
(g40
g9
NtRp176
(dp177
g43
I0
sg44
I0
sg45
g46
sg47
F9.2699214197475204
sg48
g10
sg49
I1
sg12
I01
sg50
F-1.0621810335393727
sg51
F680.61400667732801
sS'r'
I6
sg33
I5
sS't'
F35.605999999999646
sg34
I6
sS'y'
F-40.992013878441142
sS'x'
F48.741752108957009
sg52
F5.1936716779801149
sg53
F0.83775450719773159
sbag7
(g40
g9
NtRp178
(dp179
g43
I0
sg44
I0
sg45
g46
sg47
F-13.273514357101273
sg48
g10
sg49
I1
sg12
I01
sg50
F-1.7561157795068063
sg51
F821.2855230995159
sS'r'
I6
sg33
I5
sS't'
F35.605999999999646
sg34
I6
sS'y'
F-25.492006453506299
sS'x'
F64.339253073734326
sg52
F4.1112798855877681
sg53
F0.74625645585472722
sbag7
(g40
g9
NtRp180
(dp181
g43
I0
sg44
I0
sg45
g46
sg47
F-13.926220121757799
sg48
g10
sg49
I1
sg12
I01
sg50
F-1.5007126686113463
sg51
F904.88825774184147
sS'r'
I6
sg33
I5
sS't'
F35.605999999999646
sg34
I6
sS'y'
F-47.280515633677872
sS'x'
F15.178397349668854
sg52
F5.6372116119483255
sg53
F0.77870828408617609
sbag7
(g40
g9
NtRp182
(dp183
g43
I0
sg44
I0
sg45
g46
sg47
F9.8378026186234422
sg48
g10
sg49
I1
sg12
I01
sg50
F-0.70543574481240068
sg51
F604.37669407564863
sS'r'
I6
sg33
I5
sS't'
F35.605999999999646
sg34
I6
sS'y'
F-7.4170157466532558
sS'x'
F48.481297009541137
sg52
F4.7317898701681029
sg53
F0.88907594103025789
sbag7
(g40
g9
NtRp184
(dp185
g43
I0
sg44
I0
sg45
g46
sg47
F11.300313415400852
sg48
g10
sg49
I1
sg12
I01
sg50
F-1.7939570369360129
sg51
F230.00746242050585
sS'r'
I6
sg33
I5
sS't'
F35.605999999999646
sg34
I6
sS'y'
F-39.792150408950398
sS'x'
F65.427812380814771
sg52
F4.1676169377730083
sg53
F0.74156471939808111
sbag7
(g40
g9
NtRp186
(dp187
g43
I0
sg44
I0
sg45
g46
sg47
F7.4675174675340283
sg48
g10
sg49
I1
sg12
I01
sg50
F1.7581038929911528
sg51
F837.9354551344336
sS'r'
I6
sg33
I5
sS't'
F35.605999999999646
sg34
I6
sS'y'
F-66.868700330271906
sS'x'
F39.643433084338106
sg52
F5.0361416558062029
sg53
F1.340466001067794
sbag7
(g40
g9
NtRp188
(dp189
g43
I0
sg44
I0
sg45
g46
sg47
F12.823612001188856
sg48
g10
sg49
I1
sg12
I01
sg50
F-1.1771422880831124
sg51
F753.31919707595034
sS'r'
I6
sg33
I5
sS't'
F35.605999999999646
sg34
I6
sS'y'
F-66.929790219091259
sS'x'
F27.82029352273684
sg52
F4.6779400548486993
sg53
F0.82185575377754061
sbag7
(g40
g9
NtRp190
(dp191
g43
I0
sg44
I0
sg45
g46
sg47
F-14.335678440367934
sg48
g10
sg49
I1
sg12
I01
sg50
F0.45787868737583415
sg51
F746.67629109467975
sS'r'
I6
sg33
I5
sS't'
F35.605999999999646
sg34
I6
sS'y'
F-58.096248437548489
sS'x'
F19.78048806893273
sg52
F5.9135629538404304
sg53
F1.0793004659484546
sba(lp192
g10
ag41
ag54
ag56
ag58
ag60
ag62
ag64
ag66
ag68
ag70
ag72
ag74
ag76
ag78
ag80
ag82
ag84
ag86
ag88
ag90
ag92
ag94
ag96
ag98
ag100
ag102
ag104
ag106
ag108
ag110
ag112
ag114
ag116
ag118
ag120
ag122
ag124
ag126
ag128
ag130
ag132
ag134
ag136
ag138
ag140
ag142
ag144
ag146
ag148
ag150
ag152
ag154
ag156
ag158
ag160
ag162
ag164
ag166
ag168
ag170
ag172
ag174
ag176
ag178
ag180
ag182
ag184
ag186
ag188
ag190
a(lp193
(lp194
g10
ag41
ag54
ag56
ag58
ag60
ag62
ag64
ag66
ag68
ag70
ag72
ag74
ag76
ag78
ag80
ag82
ag84
ag86
ag88
ag90
ag92
ag94
ag96
ag98
ag100
ag102
ag104
ag106
ag108
ag110
ag112
ag114
ag116
ag118
ag120
ag122
ag124
ag126
ag128
ag130
ag132
ag134
ag136
ag138
ag140
ag142
ag144
ag146
ag148
ag150
ag152
ag154
ag156
ag158
ag160
ag162
ag164
ag166
ag168
ag170
ag172
ag174
ag176
ag178
ag180
ag182
ag184
ag186
ag188
ag190
a(lp195
g10
a(lp196
g41
ag54
ag56
ag58
ag60
ag62
ag64
ag66
ag68
ag70
ag72
ag74
ag76
ag78
ag80
ag82
ag84
ag86
ag88
ag90
ag92
ag94
ag96
ag98
ag100
ag102
ag104
ag106
ag108
ag110
ag112
ag114
ag116
ag118
ag120
ag122
ag124
ag126
ag128
ag130
ag132
ag134
ag136
ag138
ag140
ag142
ag144
ag146
ag148
ag150
ag152
ag154
ag156
ag158
ag160
ag162
ag164
ag166
ag168
ag170
ag172
ag174
ag176
ag178
ag180
ag182
ag184
ag186
ag188
ag190
atp197
I0
I0
g10
I10
I150
(lp198
(lp199
(I0
I0
I5
tp200
a(I20
F0.14999999999999999
I10
tp201
a(I40
F-0.14999999999999999
I15
tp202
a(I60
F-0.10000000000000001
I20
tp203
a(I60
F0.10000000000000001
I20
tp204
atp205
.