((c__builtin__
set
p1
((ltRp2
g1
((lp3
S'intro0'
p4
atRp5
t((lp6
ccopy_reg
_reconstructor
p7
(csrc.thing
Amoeba
p8
c__builtin__
object
p9
NtRp10
(dp11
S'alive'
p12
I01
sS'blobspecs'
p13
(lp14
(F3.3008939087431624
F0.73273052012747264
F0.730204544900939
tp15
a(F3.4070544642352529
F-0.72535618812870584
F0.76520797483467584
tp16
a(F5.3395215265266058
F0.90336443833078994
F0.62628534097929633
tp17
a(F3.193632624492325
F-0.98143786934409205
F0.66493526585403606
tp18
a(F1.1873614078366304
F0.94811043066369927
F0.63724743557658292
tp19
a(F1.1355354048950572
F-0.99851999971751648
F0.72219131198485242
tp20
a(F2.7486228963834458
F0.6140806385138261
F0.70377407909642997
tp21
a(F2.8703590360897251
F-0.92119598953585924
F0.62514605979351845
tp22
a(F2.1669171747430527
F0.81042762722556805
F0.66292942577331093
tp23
a(F2.7717969382350249
F-0.87137537307456769
F0.67038067361194253
tp24
a(F3.5152544748660852
F0.65630967548859975
F0.79614323033717205
tp25
a(F4.8537585430202794
F-0.60714946179180584
F0.65934214093414045
tp26
a(F0.58729809362212704
F0.8473077871613256
F0.77358803092319284
tp27
a(F0.67170777315290553
F-0.82356188083133364
F0.70816593489913471
tp28
a(F5.8186316751901339
F0.97259233158805181
F0.6370718766659843
tp29
a(F5.2078722894279004
F-0.62792188503973956
F0.68837273937374888
tp30
a(F5.134599091192741
F0.90506471011337164
F0.76095605146094181
tp31
a(F2.3978196482579279
F-0.96469752622597027
F0.79822128393973557
tp32
asS'mass'
p33
I10000
sS't'
F45.690999999997715
sS'rcollide'
p34
I20
sS'y'
F-100
sS'x'
F0
sS'rblob'
p35
I20
sS'slots'
p36
(lp37
sS'nblob'
p38
I18
sS'nslot'
p39
I3
sbag7
(csrc.thing
Virus
p40
g9
NtRp41
(dp42
S'iy'
p43
I0
sS'ix'
p44
I0
sS'imgname'
p45
S'virus'
p46
sS'angle'
p47
F14.285074286709316
sS'target'
p48
g10
sS'hp'
p49
I1
sg12
I01
sS'imgdy'
p50
F-1.6176442616810744
sS'tdraw0'
p51
F731.35254086239547
sS'r'
I6
sg33
I5
sS't'
F45.674999999997716
sg34
I6
sS'y'
F-75.354323184637039
sS'x'
F-8.3430429910993258
sS'speed'
p52
F5.8311497488792794
sS'fstretch'
p53
F0.76367927357090315
sbag7
(g40
g9
NtRp54
(dp55
g43
I0
sg44
I0
sg45
g46
sg47
F10.892621999543511
sg48
g10
sg49
I1
sg12
I01
sg50
F1.6162963599875497
sg51
F712.18865523313059
sS'r'
I6
sg33
I5
sS't'
F45.674999999997716
sg34
I6
sS'y'
F-19.377967890448215
sS'x'
F-11.637489331973891
sg52
F4.4476464774225475
sg53
F1.3091560941216349
sbag7
(g40
g9
NtRp56
(dp57
g43
I0
sg44
I0
sg45
g46
sg47
F-14.198413451702075
sg48
g10
sg49
I1
sg12
I01
sg50
F1.3036162842932038
sg51
F339.71742670323857
sS'r'
I6
sg33
I5
sS't'
F45.674999999997716
sg34
I6
sS'y'
F-76.714569692942959
sS'x'
F11.610517919739388
sg52
F5.9440690031441994
sg53
F1.2426788107609374
sbag7
(g40
g9
NtRp58
(dp59
g43
I0
sg44
I0
sg45
g46
sg47
F13.819699607594346
sg48
g10
sg49
I1
sg12
I01
sg50
F1.7795385203977541
sg51
F680.17489016956029
sS'r'
I6
sg33
I5
sS't'
F45.674999999997716
sg34
I6
sS'y'
F-69.453043697305986
sS'x'
F2.0826097255506393
sg52
F5.9158201272345936
sg53
F1.3452632965331688
sbag7
(g40
g9
NtRp60
(dp61
g43
I0
sg44
I0
sg45
g46
sg47
F-9.6791419821028839
sg48
g10
sg49
I1
sg12
I01
sg50
F1.6889947350457846
sg51
F966.0396113739007
sS'r'
I6
sg33
I5
sS't'
F45.674999999997716
sg34
I6
sS'y'
F-43.668302339229996
sS'x'
F-11.819337684689764
sg52
F5.3414570854613848
sg53
F1.3251148335428569
sbag7
(g40
g9
NtRp62
(dp63
g43
I0
sg44
I0
sg45
g46
sg47
F-14.640296462952524
sg48
g10
sg49
I1
sg12
I01
sg50
F0.88769169168410333
sg51
F328.12290487684493
sS'r'
I6
sg33
I5
sS't'
F25.671999999999091
sg34
I6
sS'y'
F-87.085946293245243
sS'x'
F27.259448517989508
sg52
F5.7266716528713335
sg53
F1.1594533166490075
sbag7
(g40
g9
NtRp64
(dp65
g43
I0
sg44
I0
sg45
g46
sg47
F-9.4558797248285842
sg48
g10
sg49
I1
sg12
I01
sg50
F-0.27172696542824015
sg51
F496.79001216686061
sS'r'
I6
sg33
I5
sS't'
F25.671999999999091
sg34
I6
sS'y'
F-62.765888514628898
sS'x'
F80.823116838387406
sg52
F4.6817923864779427
sg53
F0.95572235899553326
sbag7
(g40
g9
NtRp66
(dp67
g43
I0
sg44
I0
sg45
g46
sg47
F-14.57937345025152
sg48
g10
sg49
I1
sg12
I01
sg50
F1.7242797136233559
sg51
F693.88068884685583
sS'r'
I6
sg33
I5
sS't'
F25.671999999999091
sg34
I6
sS'y'
F-59.548875996188514
sS'x'
F47.97817903002754
sg52
F5.5515900823396045
sg53
F1.3329305672699794
sbag7
(g40
g9
NtRp68
(dp69
g43
I0
sg44
I0
sg45
g46
sg47
F-11.554934244969035
sg48
g10
sg49
I1
sg12
I01
sg50
F1.5631636864098724
sg51
F776.89972145173158
sS'r'
I6
sg33
I5
sS't'
F25.671999999999091
sg34
I6
sS'y'
F-3.1000081781274549
sS'x'
F73.52762141611359
sg52
F4.5483791987289424
sg53
F1.2976141136687913
sbag7
(g40
g9
NtRp70
(dp71
g43
I0
sg44
I0
sg45
g46
sg47
F13.53878158333468
sg48
g10
sg49
I1
sg12
I01
sg50
F0.15686960891967228
sg51
F333.73492561865527
sS'r'
I6
sg33
I5
sS't'
F25.671999999999091
sg34
I6
sS'y'
F-66.217488342488053
sS'x'
F67.45415415596122
sg52
F5.499801007116436
sg53
F1.0264897117942438
sbag7
(g40
g9
NtRp72
(dp73
g43
I0
sg44
I0
sg45
g46
sg47
F2.1053665091780154
sg48
g10
sg49
I1
sg12
I01
sg50
F-1.7343316598894765
sg51
F969.40037821967269
sS'r'
I6
sg33
I5
sS't'
F25.671999999999091
sg34
I6
sS'y'
F-78.269941206472993
sS'x'
F66.02512866010008
sg52
F4.1223945955312047
sg53
F0.74897080366274449
sbag7
(g40
g9
NtRp74
(dp75
g43
I0
sg44
I0
sg45
g46
sg47
F-12.703514009392904
sg48
g10
sg49
I1
sg12
I01
sg50
F1.4815916851861142
sg51
F944.66928471456811
sS'r'
I6
sg33
I5
sS't'
F25.671999999999091
sg34
I6
sS'y'
F-33.731029463452963
sS'x'
F61.315439236867007
sg52
F5.5106842904913869
sg53
F1.2800919963931836
sbag7
(g40
g9
NtRp76
(dp77
g43
I0
sg44
I0
sg45
g46
sg47
F-13.49464366865741
sg48
g10
sg49
I1
sg12
I01
sg50
F1.3485258489963392
sg51
F338.98222460416048
sS'r'
I6
sg33
I5
sS't'
F25.671999999999091
sg34
I6
sS'y'
F-72.886187181984198
sS'x'
F54.901815435705203
sg52
F5.3760886454383296
sg53
F1.2520150685218419
sbag7
(g40
g9
NtRp78
(dp79
g43
I0
sg44
I0
sg45
g46
sg47
F6.7486322653955693
sg48
g10
sg49
I1
sg12
I01
sg50
F1.7947683679487736
sg51
F132.18540474131069
sS'r'
I6
sg33
I5
sS't'
F25.671999999999091
sg34
I6
sS'y'
F-57.031096134435693
sS'x'
F59.720001868741598
sg52
F5.4331123508096377
sg53
F1.3486823264598429
sbag7
(g40
g9
NtRp80
(dp81
g43
I0
sg44
I0
sg45
g46
sg47
F-0.012792153191631244
sg48
g10
sg49
I1
sg12
I01
sg50
F-1.545896543520636
sg51
F644.53301141529653
sS'r'
I6
sg33
I5
sS't'
F25.671999999999091
sg34
I6
sS'y'
F-74.777482237001152
sS'x'
F80.921910809192013
sg52
F4.0379372816065651
sg53
F0.7728661329976565
sbag7
(g40
g9
NtRp82
(dp83
g43
I0
sg44
I0
sg45
g46
sg47
F12.027025851898848
sg48
g10
sg49
I1
sg12
I01
sg50
F-1.3455151105048644
sg51
F657.72993812538266
sS'r'
I6
sg33
I5
sS't'
F5.6900000000000057
sg34
I6
sS'y'
F-30.13827107543397
sS'x'
F-149.96773440875859
sg52
F5.5196163724287519
sg53
F0.79911331805880848
sbag7
(g40
g9
NtRp84
(dp85
g43
I0
sg44
I0
sg45
g46
sg47
F11.191360914387795
sg48
g10
sg49
I1
sg12
I01
sg50
F-1.7908312476153958
sg51
F668.34880143294299
sS'r'
I6
sg33
I5
sS't'
F5.6900000000000057
sg34
I6
sS'y'
F55.475442164679684
sS'x'
F-173.84565551931894
sg52
F4.364529381150982
sg53
F0.74195114922760097
sbag7
(g40
g9
NtRp86
(dp87
g43
I0
sg44
I0
sg45
g46
sg47
F-13.041402255487949
sg48
g10
sg49
I1
sg12
I01
sg50
F1.3064305511580878
sg51
F535.37347384826398
sS'r'
I6
sg33
I5
sS't'
F5.6900000000000057
sg34
I6
sS'y'
F29.994698671439675
sS'x'
F-167.24078515239512
sg52
F5.2136296562268134
sg53
F1.2432618191121423
sbag7
(g40
g9
NtRp88
(dp89
g43
I0
sg44
I0
sg45
g46
sg47
F-14.99268620476659
sg48
g10
sg49
I1
sg12
I01
sg50
F1.7999912668899032
sg51
F986.58172813250769
sS'r'
I6
sg33
I5
sS't'
F5.6900000000000057
sg34
I6
sS'y'
F72.2271657487032
sS'x'
F-145.86780456252319
sg52
F4.381600147825119
sg53
F1.3498568428331694
sbag7
(g40
g9
NtRp90
(dp91
g43
I0
sg44
I0
sg45
g46
sg47
F-13.148612500679278
sg48
g10
sg49
I1
sg12
I01
sg50
F-1.5671115354545473
sg51
F568.48749146102148
sS'r'
I6
sg33
I5
sS't'
F5.6900000000000057
sg34
I6
sS'y'
F24.931965633940038
sS'x'
F-139.79937341182631
sg52
F4.7067995197229493
sg53
F0.7701382337401691
sbag7
(g40
g9
NtRp92
(dp93
g43
I0
sg44
I0
sg45
g46
sg47
F-13.86603952381776
sg48
g10
sg49
I1
sg12
I01
sg50
F1.7275835060670097
sg51
F673.02263087619735
sS'r'
I6
sg33
I5
sS't'
F5.6900000000000057
sg34
I6
sS'y'
F46.280187111504574
sS'x'
F-134.04813089417959
sg52
F4.0613068316968199
sg53
F1.3336647236991457
sbag7
(g40
g9
NtRp94
(dp95
g43
I0
sg44
I0
sg45
g46
sg47
F7.9498373480490674
sg48
g10
sg49
I1
sg12
I01
sg50
F1.4452968760012717
sg51
F319.87222050137075
sS'r'
I6
sg33
I5
sS't'
F5.6900000000000057
sg34
I6
sS'y'
F-29.92545266242605
sS'x'
F-171.44872530202539
sg52
F4.3217164539677091
sg53
F1.2723719206991029
sbag7
(g40
g9
NtRp96
(dp97
g43
I0
sg44
I0
sg45
g46
sg47
F-4.516940068347191
sg48
g10
sg49
I1
sg12
I01
sg50
F-0.24768729355732896
sg51
F485.98305449149746
sS'r'
I6
sg33
I5
sS't'
F5.6900000000000057
sg34
I6
sS'y'
F-11.208540691152756
sS'x'
F-148.63380512923499
sg52
F5.495316699886053
sg53
F0.95955924897909617
sbag7
(g40
g9
NtRp98
(dp99
g43
I0
sg44
I0
sg45
g46
sg47
F0.78281884598414708
sg48
g10
sg49
I1
sg12
I01
sg50
F1.6929625421298502
sg51
F690.60935214272911
sS'r'
I6
sg33
I5
sS't'
F5.6900000000000057
sg34
I6
sS'y'
F-10.431212925083431
sS'x'
F-136.64156841950052
sg52
F4.4020976029197874
sg53
F1.3259914233598067
sbag7
(g40
g9
NtRp100
(dp101
g43
I0
sg44
I0
sg45
g46
sg47
F12.070465868264405
sg48
g10
sg49
I1
sg12
I01
sg50
F1.6566891305426541
sg51
F301.67466736811741
sS'r'
I6
sg33
I5
sS't'
F5.6900000000000057
sg34
I6
sS'y'
F-21.202081362264408
sS'x'
F-141.95863211266541
sg52
F4.6167076421655535
sg53
F1.3179992342555698
sbag7
(g40
g9
NtRp102
(dp103
g43
I0
sg44
I0
sg45
g46
sg47
F13.423004579155675
sg48
g10
sg49
I1
sg12
I01
sg50
F0.66877912422104413
sg51
F730.73738514863169
sS'r'
I6
sg33
I5
sS't'
F5.6900000000000057
sg34
I6
sS'y'
F35.814687824214538
sS'x'
F-144.88410562987937
sg52
F4.8372181636275098
sg53
F1.1179125899456894
sbag7
(g40
g9
NtRp104
(dp105
g43
I0
sg44
I0
sg45
g46
sg47
F14.001564780266008
sg48
g10
sg49
I1
sg12
I01
sg50
F-0.30079554526150076
sg51
F394.25153443549988
sS'r'
I6
sg33
I5
sS't'
F5.6900000000000057
sg34
I6
sS'y'
F43.251437991422947
sS'x'
F-174.5106317176066
sg52
F4.7542624516994287
sg53
F0.95110330851826952
sbag7
(g40
g9
NtRp106
(dp107
g43
I0
sg44
I0
sg45
g46
sg47
F-0.33017713838053009
sg48
g10
sg49
I1
sg12
I01
sg50
F0.6456907101819056
sg51
F889.70059558498951
sS'r'
I6
sg33
I5
sS't'
F5.6900000000000057
sg34
I6
sS'y'
F11.485615963801425
sS'x'
F-136.67798776050967
sg52
F5.5015760435352092
sg53
F1.1136190513707713
sbag7
(g40
g9
NtRp108
(dp109
g43
I0
sg44
I0
sg45
g46
sg47
F14.576220308936858
sg48
g10
sg49
I1
sg12
I01
sg50
F-0.38867168800007829
sg51
F593.43348332798155
sS'r'
I6
sg33
I5
sS't'
F5.6900000000000057
sg34
I6
sS'y'
F59.135232885852645
sS'x'
F-129.57134579231487
sg52
F5.3858788794084234
sg53
F0.93727493933534645
sbag7
(g40
g9
NtRp110
(dp111
g43
I0
sg44
I0
sg45
g46
sg47
F1.2080045394290797
sg48
g10
sg49
I1
sg12
I01
sg50
F1.2278881270849158
sg51
F156.49125219647553
sS'r'
I6
sg33
I5
sS't'
F5.6900000000000057
sg34
I6
sS'y'
F15.349378014799203
sS'x'
F-170.86381846283265
sg52
F4.410674819530553
sg53
F1.2270930781698579
sba(lp112
g10
ag41
ag54
ag56
ag58
ag60
ag62
ag64
ag66
ag68
ag70
ag72
ag74
ag76
ag78
ag80
ag82
ag84
ag86
ag88
ag90
ag92
ag94
ag96
ag98
ag100
ag102
ag104
ag106
ag108
ag110
a(lp113
(lp114
g10
ag41
ag54
ag56
ag58
ag60
ag62
ag64
ag66
ag68
ag70
ag72
ag74
ag76
ag78
ag80
ag82
ag84
ag86
ag88
ag90
ag92
ag94
ag96
ag98
ag100
ag102
ag104
ag106
ag108
ag110
a(lp115
g10
a(lp116
g41
ag54
ag56
ag58
ag60
ag62
ag64
ag66
ag68
ag70
ag72
ag74
ag76
ag78
ag80
ag82
ag84
ag86
ag88
ag90
ag92
ag94
ag96
ag98
ag100
ag102
ag104
ag106
ag108
ag110
atp117
I0
I0
g10
I10
I150
(lp118
(I60
F-0.10000000000000001
I20
tp119
a(I60
F0.10000000000000001
I20
tp120
a(lp121
(I0
I0
I5
tp122
a(I20
F0.14999999999999999
I10
tp123
a(I40
F-0.14999999999999999
I15
tp124
atp125
.